; Function Attrs: mustprogress uwtable
define internal fastcc void @_ZL16switchTranslatorR11QTranslatorRK7QStringS3_(ptr noundef nonnull align 8 dereferenceable(16) %0, ptr noundef nonnull align 8 dereferenceable(24) %1, ptr noundef nonnull align 8 dereferenceable(24) %2) unnamed_addr #3 personality ptr @__gxx_personality_v0 {
  %4 = alloca %class.QString, align 8
  %5 = alloca %class.QString, align 8
  %6 = tail call noundef zeroext i1 @_ZN16QCoreApplication16removeTranslatorEP11QTranslator(ptr noundef nonnull %0)
  call void @llvm.memset.p0.i64(ptr noundef nonnull align 8 dereferenceable(24) %4, i8 0, i64 24, i1 false)
  call void @llvm.memset.p0.i64(ptr noundef nonnull align 8 dereferenceable(24) %5, i8 0, i64 24, i1 false)
  %7 = invoke noundef zeroext i1 @_ZN11QTranslator4loadERK7QStringS2_S2_S2_(ptr noundef nonnull align 8 dereferenceable(16) %0, ptr noundef nonnull align 8 dereferenceable(24) %1, ptr noundef nonnull align 8 dereferenceable(24) %2, ptr noundef nonnull align 8 dereferenceable(24) %4, ptr noundef nonnull align 8 dereferenceable(24) %5)
          to label %8 unwind label %19

8:                                                ; preds = %3
  %9 = load ptr, ptr %5, align 8
  %.not.i.i.i = icmp eq ptr %9, null
  br i1 %.not.i.i.i, label %_ZN7QStringD2Ev.exit, label %_ZN17QArrayDataPointerIDsE5derefEv.exit.i.i

_ZN17QArrayDataPointerIDsE5derefEv.exit.i.i:      ; preds = %8
  %10 = atomicrmw sub ptr %9, i32 1 seq_cst, align 4
  %.not.i.i = icmp eq i32 %10, 1
  br i1 %.not.i.i, label %11, label %_ZN7QStringD2Ev.exit

11:                                               ; preds = %_ZN17QArrayDataPointerIDsE5derefEv.exit.i.i
  %12 = load ptr, ptr %5, align 8
  call void @_ZN10QArrayData10deallocateEPS_xx(ptr noundef %12, i64 noundef 2, i64 noundef 8) #26
  br label %_ZN7QStringD2Ev.exit

_ZN7QStringD2Ev.exit:                             ; preds = %8, %_ZN17QArrayDataPointerIDsE5derefEv.exit.i.i, %11
  %13 = load ptr, ptr %4, align 8
  %.not.i.i.i6 = icmp eq ptr %13, null
  br i1 %.not.i.i.i6, label %_ZN7QStringD2Ev.exit9, label %_ZN17QArrayDataPointerIDsE5derefEv.exit.i.i7

_ZN17QArrayDataPointerIDsE5derefEv.exit.i.i7:     ; preds = %_ZN7QStringD2Ev.exit
  %14 = atomicrmw sub ptr %13, i32 1 seq_cst, align 4
  %.not.i.i8 = icmp eq i32 %14, 1
  br i1 %.not.i.i8, label %15, label %_ZN7QStringD2Ev.exit9

15:                                               ; preds = %_ZN17QArrayDataPointerIDsE5derefEv.exit.i.i7
  %16 = load ptr, ptr %4, align 8
  call void @_ZN10QArrayData10deallocateEPS_xx(ptr noundef %16, i64 noundef 2, i64 noundef 8) #26
  br label %_ZN7QStringD2Ev.exit9

_ZN7QStringD2Ev.exit9:                            ; preds = %_ZN7QStringD2Ev.exit, %_ZN17QArrayDataPointerIDsE5derefEv.exit.i.i7, %15
  br i1 %7, label %17, label %29

17:                                               ; preds = %_ZN7QStringD2Ev.exit9
  %18 = call noundef zeroext i1 @_ZN16QCoreApplication17installTranslatorEP11QTranslator(ptr noundef nonnull %0)
  br label %29

19:                                               ; preds = %3
  %20 = landingpad { ptr, i32 }
          cleanup
  %21 = load ptr, ptr %5, align 8
  %.not.i.i.i10 = icmp eq ptr %21, null
  br i1 %.not.i.i.i10, label %_ZN7QStringD2Ev.exit13, label %_ZN17QArrayDataPointerIDsE5derefEv.exit.i.i11

_ZN17QArrayDataPointerIDsE5derefEv.exit.i.i11:    ; preds = %19
  %22 = atomicrmw sub ptr %21, i32 1 seq_cst, align 4
  %.not.i.i12 = icmp eq i32 %22, 1
  br i1 %.not.i.i12, label %23, label %_ZN7QStringD2Ev.exit13

23:                                               ; preds = %_ZN17QArrayDataPointerIDsE5derefEv.exit.i.i11
  %24 = load ptr, ptr %5, align 8
  call void @_ZN10QArrayData10deallocateEPS_xx(ptr noundef %24, i64 noundef 2, i64 noundef 8) #26
  br label %_ZN7QStringD2Ev.exit13

_ZN7QStringD2Ev.exit13:                           ; preds = %19, %_ZN17QArrayDataPointerIDsE5derefEv.exit.i.i11, %23
  %25 = load ptr, ptr %4, align 8
  %.not.i.i.i14 = icmp eq ptr %25, null
  br i1 %.not.i.i.i14, label %_ZN7QStringD2Ev.exit17, label %_ZN17QArrayDataPointerIDsE5derefEv.exit.i.i15

_ZN17QArrayDataPointerIDsE5derefEv.exit.i.i15:    ; preds = %_ZN7QStringD2Ev.exit13
  %26 = atomicrmw sub ptr %25, i32 1 seq_cst, align 4
  %.not.i.i16 = icmp eq i32 %26, 1
  br i1 %.not.i.i16, label %27, label %_ZN7QStringD2Ev.exit17

27:                                               ; preds = %_ZN17QArrayDataPointerIDsE5derefEv.exit.i.i15
  %28 = load ptr, ptr %4, align 8
  call void @_ZN10QArrayData10deallocateEPS_xx(ptr noundef %28, i64 noundef 2, i64 noundef 8) #26
  br label %_ZN7QStringD2Ev.exit17

_ZN7QStringD2Ev.exit17:                           ; preds = %_ZN7QStringD2Ev.exit13, %_ZN17QArrayDataPointerIDsE5derefEv.exit.i.i15, %27
  resume { ptr, i32 } %20

29:                                               ; preds = %17, %_ZN7QStringD2Ev.exit9
  ret void
}